; Function Attrs: nounwind uwtable
define internal void @apply_independent_coupling(ptr noundef readonly captures(none) %0, ptr noundef readonly captures(none) %1, ptr noundef readonly captures(none) %2, i32 noundef %3) #3 {
  %5 = getelementptr inbounds nuw i8, ptr %2, i64 80952
  %6 = sext i32 %3 to i64
  %7 = getelementptr inbounds [16 x [120 x float]], ptr %5, i64 0, i64 %6
  %8 = load float, ptr %7, align 8, !tbaa !58
  %9 = getelementptr inbounds nuw i8, ptr %2, i64 40488
  %10 = load ptr, ptr %9, align 8, !tbaa !58
  %11 = getelementptr inbounds nuw i8, ptr %1, i64 40344
  %12 = load ptr, ptr %11, align 8, !tbaa !58
  %13 = getelementptr inbounds nuw i8, ptr %0, i64 22488
  %14 = load i32, ptr %13, align 8, !tbaa !168
  %15 = icmp eq i32 %14, 1
  %16 = zext i1 %15 to i32
  %17 = shl nuw nsw i32 1024, %16
  %18 = getelementptr inbounds nuw i8, ptr %0, i64 9536
  %19 = load ptr, ptr %18, align 16, !tbaa !58
  %20 = getelementptr inbounds nuw i8, ptr %19, i64 8
  %21 = load ptr, ptr %20, align 8, !tbaa !169
  tail call void %21(ptr noundef %12, ptr noundef %10, float noundef %8, i32 noundef %17) #12
  ret void
}